target datalayout = "e-m:e-p270:32:32-p271:32:32-p272:64:64-i64:64-i128:128-f80:128-n8:16:32:64-S128"
target triple = "x86_64-pc-linux-gnu"

%struct.fc_ctx_ = type { i32, i32 }

@g_sigchildWait = dso_local global i32 1, align 4
@.str = private unnamed_addr constant [50 x i8] c"Invalid arguments to download_complete_callback.\0A\00", align 1
@.str.1 = private unnamed_addr constant [65 x i8] c"download_complete_callback: Download complete for database : %s\0A\00", align 1
@.str.2 = private unnamed_addr constant [65 x i8] c"download_complete_callback:   fc_context->bTestDatabases   : %u\0A\00", align 1
@.str.3 = private unnamed_addr constant [65 x i8] c"download_complete_callback:   fc_context->bBytecodeEnabled : %u\0A\00", align 1
@.str.4 = private unnamed_addr constant [28 x i8] c"Testing database: '%s' ...\0A\00", align 1
@.str.5 = private unnamed_addr constant [19 x i8] c"pipe() failed: %s\0A\00", align 1
@.str.6 = private unnamed_addr constant [32 x i8] c"Database load exited with \22%s\22\0A\00", align 1
@.str.7 = private unnamed_addr constant [36 x i8] c"fork() to test database failed: %s\0A\00", align 1
@.str.8 = private unnamed_addr constant [51 x i8] c"dup2() call to redirect stderr to pipe failed: %s\0A\00", align 1
@.str.9 = private unnamed_addr constant [2 x i8] c"r\00", align 1
@.str.10 = private unnamed_addr constant [19 x i8] c"LibClamAV Warning:\00", align 1
@.str.11 = private unnamed_addr constant [3 x i8] c"%s\00", align 1
@.str.12 = private unnamed_addr constant [22 x i8] c"waitpid() failed: %s\0A\00", align 1
@.str.13 = private unnamed_addr constant [43 x i8] c"Stderr output from database load : %s%s%s\0A\00", align 1
@.str.14 = private unnamed_addr constant [8 x i8] c" [...] \00", align 1
@.str.15 = private unnamed_addr constant [1 x i8] zeroinitializer, align 1
@.str.16 = private unnamed_addr constant [58 x i8] c"Database successfully loaded, but there is stderr output\0A\00", align 1
@.str.17 = private unnamed_addr constant [35 x i8] c"Database load killed by signal %d\0A\00", align 1
@.str.18 = private unnamed_addr constant [30 x i8] c"Unknown status from wait: %d\0A\00", align 1
@.str.19 = private unnamed_addr constant [23 x i8] c"Database test passed.\0A\00", align 1
@.str.20 = private unnamed_addr constant [23 x i8] c"Database test FAILED.\0A\00", align 1

; Function Attrs: nounwind uwtable
define dso_local i32 @download_complete_callback(ptr noundef %0, ptr noundef %1) #0 {
  %3 = alloca ptr, align 8
  %4 = alloca ptr, align 8
  %5 = alloca i32, align 4
  %6 = alloca i32, align 4
  %7 = alloca ptr, align 8
  %8 = alloca [256 x i8], align 16
  %9 = alloca [256 x i8], align 16
  %10 = alloca [2 x i32], align 4
  %11 = alloca i32, align 4
  %12 = alloca i32, align 4
  %13 = alloca i32, align 4
  %14 = alloca ptr, align 8
  store ptr %0, ptr %3, align 8
  store ptr %1, ptr %4, align 8
  store i32 16, ptr %5, align 4
  %15 = load ptr, ptr %4, align 8
  store ptr %15, ptr %7, align 8
  store i32 0, ptr %12, align 4
  %16 = load ptr, ptr %4, align 8
  %17 = icmp eq ptr null, %16
  br i1 %17, label %21, label %18

18:                                               ; preds = %2
  %19 = load ptr, ptr %3, align 8
  %20 = icmp eq ptr null, %19
  br i1 %20, label %21, label %23

21:                                               ; preds = %18, %2
  %22 = call i32 (i32, ptr, ...) @logg(i32 noundef 4, ptr noundef @.str)
  br label %219

23:                                               ; preds = %18
  %24 = load ptr, ptr %3, align 8
  %25 = call i32 (i32, ptr, ...) @logg(i32 noundef 2, ptr noundef @.str.1, ptr noundef %24)
  %26 = load ptr, ptr %7, align 8
  %27 = getelementptr inbounds %struct.fc_ctx_, ptr %26, i32 0, i32 0
  %28 = load i32, ptr %27, align 4
  %29 = call i32 (i32, ptr, ...) @logg(i32 noundef 2, ptr noundef @.str.2, i32 noundef %28)
  %30 = load ptr, ptr %7, align 8
  %31 = getelementptr inbounds %struct.fc_ctx_, ptr %30, i32 0, i32 1
  %32 = load i32, ptr %31, align 4
  %33 = call i32 (i32, ptr, ...) @logg(i32 noundef 2, ptr noundef @.str.3, i32 noundef %32)
  %34 = load ptr, ptr %3, align 8
  %35 = call i32 (i32, ptr, ...) @logg(i32 noundef 0, ptr noundef @.str.4, ptr noundef %34)
  %36 = load ptr, ptr %7, align 8
  %37 = getelementptr inbounds %struct.fc_ctx_, ptr %36, i32 0, i32 0
  %38 = load i32, ptr %37, align 4
  %39 = icmp ne i32 %38, 0
  br i1 %39, label %40, label %218

40:                                               ; preds = %23
  %41 = getelementptr inbounds [2 x i32], ptr %10, i64 0, i64 0
  %42 = call i32 @pipe(ptr noundef %41) #10
  %43 = icmp eq i32 %42, -1
  br i1 %43, label %44, label %61

44:                                               ; preds = %40
  %45 = call ptr @__errno_location() #11
  %46 = load i32, ptr %45, align 4
  %47 = call ptr @strerror(i32 noundef %46) #10
  %48 = call i32 (i32, ptr, ...) @logg(i32 noundef 4, ptr noundef @.str.5, ptr noundef %47)
  %49 = load ptr, ptr %3, align 8
  %50 = load ptr, ptr %7, align 8
  %51 = getelementptr inbounds %struct.fc_ctx_, ptr %50, i32 0, i32 1
  %52 = load i32, ptr %51, align 4
  %53 = call i32 @fc_test_database(ptr noundef %49, i32 noundef %52)
  store i32 %53, ptr %6, align 4
  %54 = load i32, ptr %6, align 4
  %55 = icmp ne i32 0, %54
  br i1 %55, label %56, label %60

56:                                               ; preds = %44
  %57 = load i32, ptr %6, align 4
  %58 = call ptr @fc_strerror(i32 noundef %57)
  %59 = call i32 (i32, ptr, ...) @logg(i32 noundef 4, ptr noundef @.str.6, ptr noundef %58)
  store i32 8, ptr %5, align 4
  br label %219

60:                                               ; preds = %44
  br label %217

61:                                               ; preds = %40
  store i32 0, ptr @g_sigchildWait, align 4
  %62 = call i32 @fork() #10
  store i32 %62, ptr %11, align 4
  switch i32 %62, label %106 [
    i32 -1, label %63
    i32 0, label %86
  ]

63:                                               ; preds = %61
  %64 = getelementptr inbounds [2 x i32], ptr %10, i64 0, i64 0
  %65 = load i32, ptr %64, align 4
  %66 = call i32 @close(i32 noundef %65)
  %67 = getelementptr inbounds [2 x i32], ptr %10, i64 0, i64 1
  %68 = load i32, ptr %67, align 4
  %69 = call i32 @close(i32 noundef %68)
  %70 = call ptr @__errno_location() #11
  %71 = load i32, ptr %70, align 4
  %72 = call ptr @strerror(i32 noundef %71) #10
  %73 = call i32 (i32, ptr, ...) @logg(i32 noundef 4, ptr noundef @.str.7, ptr noundef %72)
  %74 = load ptr, ptr %3, align 8
  %75 = load ptr, ptr %7, align 8
  %76 = getelementptr inbounds %struct.fc_ctx_, ptr %75, i32 0, i32 1
  %77 = load i32, ptr %76, align 4
  %78 = call i32 @fc_test_database(ptr noundef %74, i32 noundef %77)
  store i32 %78, ptr %6, align 4
  %79 = load i32, ptr %6, align 4
  %80 = icmp ne i32 0, %79
  br i1 %80, label %81, label %85

81:                                               ; preds = %63
  %82 = load i32, ptr %6, align 4
  %83 = call ptr @fc_strerror(i32 noundef %82)
  %84 = call i32 (i32, ptr, ...) @logg(i32 noundef 4, ptr noundef @.str.6, ptr noundef %83)
  store i32 8, ptr %5, align 4
  br label %219

85:                                               ; preds = %63
  br label %216

86:                                               ; preds = %61
  %87 = getelementptr inbounds [2 x i32], ptr %10, i64 0, i64 0
  %88 = load i32, ptr %87, align 4
  %89 = call i32 @close(i32 noundef %88)
  %90 = getelementptr inbounds [2 x i32], ptr %10, i64 0, i64 1
  %91 = load i32, ptr %90, align 4
  %92 = call i32 @dup2(i32 noundef %91, i32 noundef 2) #10
  %93 = icmp eq i32 %92, -1
  br i1 %93, label %94, label %99

94:                                               ; preds = %86
  %95 = call ptr @__errno_location() #11
  %96 = load i32, ptr %95, align 4
  %97 = call ptr @strerror(i32 noundef %96) #10
  %98 = call i32 (i32, ptr, ...) @logg(i32 noundef 4, ptr noundef @.str.8, ptr noundef %97)
  br label %99

99:                                               ; preds = %94, %86
  %100 = load ptr, ptr %3, align 8
  %101 = load ptr, ptr %7, align 8
  %102 = getelementptr inbounds %struct.fc_ctx_, ptr %101, i32 0, i32 1
  %103 = load i32, ptr %102, align 4
  %104 = call i32 @fc_test_database(ptr noundef %100, i32 noundef %103)
  store i32 %104, ptr %5, align 4
  %105 = load i32, ptr %5, align 4
  call void @exit(i32 noundef %105) #12
  unreachable

106:                                              ; preds = %61
  store ptr null, ptr %14, align 8
  %107 = getelementptr inbounds [2 x i32], ptr %10, i64 0, i64 1
  %108 = load i32, ptr %107, align 4
  %109 = call i32 @close(i32 noundef %108)
  %110 = getelementptr inbounds [2 x i32], ptr %10, i64 0, i64 0
  %111 = load i32, ptr %110, align 4
  %112 = call noalias ptr @fdopen(i32 noundef %111, ptr noundef @.str.9) #10
  store ptr %112, ptr %14, align 8
  %113 = getelementptr inbounds [256 x i8], ptr %8, i64 0, i64 0
  store i8 0, ptr %113, align 16
  %114 = getelementptr inbounds [256 x i8], ptr %9, i64 0, i64 0
  store i8 0, ptr %114, align 16
  br label %115

115:                                              ; preds = %122, %106
  %116 = getelementptr inbounds [256 x i8], ptr %8, i64 0, i64 0
  %117 = load ptr, ptr %14, align 8
  %118 = call ptr @fgets(ptr noundef %116, i32 noundef 256, ptr noundef %117)
  %119 = icmp ne ptr %118, null
  br i1 %119, label %121, label %120

120:                                              ; preds = %115
  br label %127

121:                                              ; preds = %115
  br label %122

122:                                              ; preds = %121
  %123 = getelementptr inbounds [256 x i8], ptr %8, i64 0, i64 0
  %124 = call i32 @strncmp(ptr noundef %123, ptr noundef @.str.10, i64 noundef 18) #13
  %125 = icmp ne i32 %124, 0
  %126 = xor i1 %125, true
  br i1 %126, label %115, label %127

127:                                              ; preds = %122, %120
  br label %128

128:                                              ; preds = %133, %127
  %129 = getelementptr inbounds [256 x i8], ptr %9, i64 0, i64 0
  %130 = load ptr, ptr %14, align 8
  %131 = call ptr @fgets(ptr noundef %129, i32 noundef 256, ptr noundef %130)
  %132 = icmp ne ptr %131, null
  br i1 %132, label %133, label %136

133:                                              ; preds = %128
  %134 = getelementptr inbounds [256 x i8], ptr %9, i64 0, i64 0
  %135 = call i32 (i32, ptr, ...) @logg(i32 noundef 2, ptr noundef @.str.11, ptr noundef %134)
  br label %128

136:                                              ; preds = %128
  %137 = load ptr, ptr %14, align 8
  %138 = call i32 @fclose(ptr noundef %137)
  store ptr null, ptr %14, align 8
  br label %139

139:                                              ; preds = %149, %136
  %140 = load i32, ptr %11, align 4
  %141 = call i32 @waitpid(i32 noundef %140, ptr noundef %12, i32 noundef 0)
  store i32 %141, ptr %13, align 4
  %142 = icmp eq i32 -1, %141
  br i1 %142, label %143, label %147

143:                                              ; preds = %139
  %144 = call ptr @__errno_location() #11
  %145 = load i32, ptr %144, align 4
  %146 = icmp eq i32 %145, 4
  br label %147

147:                                              ; preds = %143, %139
  %148 = phi i1 [ false, %139 ], [ %146, %143 ]
  br i1 %148, label %149, label %150

149:                                              ; preds = %147
  br label %139

150:                                              ; preds = %147
  %151 = load i32, ptr %13, align 4
  %152 = icmp eq i32 %151, -1
  br i1 %152, label %153, label %162

153:                                              ; preds = %150
  %154 = call ptr @__errno_location() #11
  %155 = load i32, ptr %154, align 4
  %156 = icmp ne i32 %155, 10
  br i1 %156, label %157, label %162

157:                                              ; preds = %153
  %158 = call ptr @__errno_location() #11
  %159 = load i32, ptr %158, align 4
  %160 = call ptr @strerror(i32 noundef %159) #10
  %161 = call i32 (i32, ptr, ...) @logg(i32 noundef 4, ptr noundef @.str.12, ptr noundef %160)
  br label %162

162:                                              ; preds = %157, %153, %150
  %163 = getelementptr inbounds [256 x i8], ptr %8, i64 0, i64 0
  %164 = call i32 @cli_chomp(ptr noundef %163)
  %165 = getelementptr inbounds [256 x i8], ptr %9, i64 0, i64 0
  %166 = call i32 @cli_chomp(ptr noundef %165)
  %167 = getelementptr inbounds [256 x i8], ptr %8, i64 0, i64 0
  %168 = load i8, ptr %167, align 16
  %169 = icmp ne i8 %168, 0
  br i1 %169, label %170, label %179

170:                                              ; preds = %162
  %171 = getelementptr inbounds [256 x i8], ptr %8, i64 0, i64 0
  %172 = getelementptr inbounds [256 x i8], ptr %9, i64 0, i64 0
  %173 = load i8, ptr %172, align 16
  %174 = sext i8 %173 to i32
  %175 = icmp ne i32 %174, 0
  %176 = select i1 %175, ptr @.str.14, ptr @.str.15
  %177 = getelementptr inbounds [256 x i8], ptr %9, i64 0, i64 0
  %178 = call i32 (i32, ptr, ...) @logg(i32 noundef 4, ptr noundef @.str.13, ptr noundef %171, ptr noundef %176, ptr noundef %177)
  br label %179

179:                                              ; preds = %170, %162
  %180 = load i32, ptr %12, align 4
  %181 = and i32 %180, 127
  %182 = icmp eq i32 %181, 0
  br i1 %182, label %183, label %200

183:                                              ; preds = %179
  %184 = load i32, ptr %12, align 4
  %185 = and i32 %184, 65280
  %186 = ashr i32 %185, 8
  store i32 %186, ptr %6, align 4
  %187 = load i32, ptr %6, align 4
  %188 = icmp ne i32 0, %187
  br i1 %188, label %189, label %193

189:                                              ; preds = %183
  %190 = load i32, ptr %6, align 4
  %191 = call ptr @fc_strerror(i32 noundef %190)
  %192 = call i32 (i32, ptr, ...) @logg(i32 noundef 4, ptr noundef @.str.6, ptr noundef %191)
  store i32 8, ptr %5, align 4
  br label %219

193:                                              ; preds = %183
  %194 = getelementptr inbounds [256 x i8], ptr %8, i64 0, i64 0
  %195 = load i8, ptr %194, align 16
  %196 = icmp ne i8 %195, 0
  br i1 %196, label %197, label %199

197:                                              ; preds = %193
  %198 = call i32 (i32, ptr, ...) @logg(i32 noundef 4, ptr noundef @.str.16)
  br label %199

199:                                              ; preds = %197, %193
  br label %215

200:                                              ; preds = %179
  %201 = load i32, ptr %12, align 4
  %202 = and i32 %201, 127
  %203 = add nsw i32 %202, 1
  %204 = trunc i32 %203 to i8
  %205 = sext i8 %204 to i32
  %206 = ashr i32 %205, 1
  %207 = icmp sgt i32 %206, 0
  br i1 %207, label %208, label %212

208:                                              ; preds = %200
  %209 = load i32, ptr %12, align 4
  %210 = and i32 %209, 127
  %211 = call i32 (i32, ptr, ...) @logg(i32 noundef 5, ptr noundef @.str.17, i32 noundef %210)
  store i32 8, ptr %5, align 4
  br label %219

212:                                              ; preds = %200
  %213 = load i32, ptr %12, align 4
  %214 = call i32 (i32, ptr, ...) @logg(i32 noundef 4, ptr noundef @.str.18, i32 noundef %213)
  store i32 8, ptr %5, align 4
  br label %219

215:                                              ; preds = %199
  br label %216

216:                                              ; preds = %215, %85
  br label %217

217:                                              ; preds = %216, %60
  br label %218

218:                                              ; preds = %217, %23
  store i32 0, ptr %5, align 4
  br label %219

219:                                              ; preds = %218, %212, %208, %189, %81, %56, %21
  %220 = load i32, ptr %5, align 4
  %221 = icmp eq i32 0, %220
  br i1 %221, label %222, label %224

222:                                              ; preds = %219
  %223 = call i32 (i32, ptr, ...) @logg(i32 noundef 0, ptr noundef @.str.19)
  br label %226

224:                                              ; preds = %219
  %225 = call i32 (i32, ptr, ...) @logg(i32 noundef 5, ptr noundef @.str.20)
  br label %226

226:                                              ; preds = %224, %222
  store i32 1, ptr @g_sigchildWait, align 4
  %227 = load i32, ptr %5, align 4
  ret i32 %227
}