; Function Attrs: nounwind uwtable
define dso_local noundef i32 @download_complete_callback(ptr noundef %0, ptr noundef readonly %1) #0 {
  %3 = alloca [256 x i8], align 16
  %4 = alloca [256 x i8], align 16
  %5 = alloca [2 x i32], align 4
  %6 = alloca i32, align 4
  store i32 0, ptr %6, align 4
  %7 = icmp eq ptr %1, null
  %8 = icmp eq ptr %0, null
  %or.cond = or i1 %8, %7
  br i1 %or.cond, label %9, label %11

9:                                                ; preds = %2
  %10 = tail call i32 (i32, ptr, ...) @logg(i32 noundef 4, ptr noundef nonnull @.str) #17
  br label %118

11:                                               ; preds = %2
  %12 = tail call i32 (i32, ptr, ...) @logg(i32 noundef 2, ptr noundef nonnull @.str.1, ptr noundef nonnull %0) #17
  %13 = load i32, ptr %1, align 4
  %14 = tail call i32 (i32, ptr, ...) @logg(i32 noundef 2, ptr noundef nonnull @.str.2, i32 noundef %13) #17
  %15 = getelementptr inbounds i8, ptr %1, i64 4
  %16 = load i32, ptr %15, align 4
  %17 = tail call i32 (i32, ptr, ...) @logg(i32 noundef 2, ptr noundef nonnull @.str.3, i32 noundef %16) #17
  %18 = tail call i32 (i32, ptr, ...) @logg(i32 noundef 0, ptr noundef nonnull @.str.4, ptr noundef nonnull %0) #17
  %19 = load i32, ptr %1, align 4
  %.not = icmp eq i32 %19, 0
  br i1 %.not, label %116, label %20

20:                                               ; preds = %11
  %21 = call i32 @pipe(ptr noundef nonnull %5) #17
  %22 = icmp eq i32 %21, -1
  br i1 %22, label %23, label %33

23:                                               ; preds = %20
  %24 = tail call ptr @__errno_location() #18
  %25 = load i32, ptr %24, align 4
  %26 = call ptr @strerror(i32 noundef %25) #17
  %27 = call i32 (i32, ptr, ...) @logg(i32 noundef 4, ptr noundef nonnull @.str.5, ptr noundef %26) #17
  %28 = load i32, ptr %15, align 4
  %29 = call i32 @fc_test_database(ptr noundef nonnull %0, i32 noundef %28) #17
  %.not44 = icmp eq i32 %29, 0
  br i1 %.not44, label %116, label %30

30:                                               ; preds = %23
  %31 = call ptr @fc_strerror(i32 noundef %29) #17
  %32 = call i32 (i32, ptr, ...) @logg(i32 noundef 4, ptr noundef nonnull @.str.6, ptr noundef %31) #17
  br label %118

33:                                               ; preds = %20
  store i32 0, ptr @g_sigchildWait, align 4
  %34 = call i32 @fork() #17
  switch i32 %34, label %65 [
    i32 -1, label %35
    i32 0, label %50
  ]

35:                                               ; preds = %33
  %36 = load i32, ptr %5, align 4
  %37 = call i32 @close(i32 noundef %36) #17
  %38 = getelementptr inbounds i8, ptr %5, i64 4
  %39 = load i32, ptr %38, align 4
  %40 = call i32 @close(i32 noundef %39) #17
  %41 = tail call ptr @__errno_location() #18
  %42 = load i32, ptr %41, align 4
  %43 = call ptr @strerror(i32 noundef %42) #17
  %44 = call i32 (i32, ptr, ...) @logg(i32 noundef 4, ptr noundef nonnull @.str.7, ptr noundef %43) #17
  %45 = load i32, ptr %15, align 4
  %46 = call i32 @fc_test_database(ptr noundef nonnull %0, i32 noundef %45) #17
  %.not35 = icmp eq i32 %46, 0
  br i1 %.not35, label %116, label %47

47:                                               ; preds = %35
  %48 = call ptr @fc_strerror(i32 noundef %46) #17
  %49 = call i32 (i32, ptr, ...) @logg(i32 noundef 4, ptr noundef nonnull @.str.6, ptr noundef %48) #17
  br label %118

50:                                               ; preds = %33
  %51 = load i32, ptr %5, align 4
  %52 = call i32 @close(i32 noundef %51) #17
  %53 = getelementptr inbounds i8, ptr %5, i64 4
  %54 = load i32, ptr %53, align 4
  %55 = call i32 @dup2(i32 noundef %54, i32 noundef 2) #17
  %56 = icmp eq i32 %55, -1
  br i1 %56, label %57, label %62

57:                                               ; preds = %50
  %58 = tail call ptr @__errno_location() #18
  %59 = load i32, ptr %58, align 4
  %60 = call ptr @strerror(i32 noundef %59) #17
  %61 = call i32 (i32, ptr, ...) @logg(i32 noundef 4, ptr noundef nonnull @.str.8, ptr noundef %60) #17
  br label %62

62:                                               ; preds = %57, %50
  %63 = load i32, ptr %15, align 4
  %64 = call i32 @fc_test_database(ptr noundef nonnull %0, i32 noundef %63) #17
  call void @exit(i32 noundef %64) #19
  unreachable

65:                                               ; preds = %33
  %66 = getelementptr inbounds i8, ptr %5, i64 4
  %67 = load i32, ptr %66, align 4
  %68 = call i32 @close(i32 noundef %67) #17
  %69 = load i32, ptr %5, align 4
  %70 = call noalias ptr @fdopen(i32 noundef %69, ptr noundef nonnull @.str.9) #17
  store i8 0, ptr %3, align 16
  store i8 0, ptr %4, align 16
  br label %71

71:                                               ; preds = %73, %65
  %72 = call ptr @fgets(ptr noundef nonnull %3, i32 noundef 256, ptr noundef %70)
  %.not36 = icmp eq ptr %72, null
  br i1 %.not36, label %74, label %73

73:                                               ; preds = %71
  %bcmp = call i32 @bcmp(ptr noundef nonnull dereferenceable(18) %3, ptr noundef nonnull dereferenceable(18) @.str.10, i64 18)
  %.not37 = icmp eq i32 %bcmp, 0
  br i1 %.not37, label %71, label %74

74:                                               ; preds = %71, %73
  %75 = call ptr @fgets(ptr noundef nonnull %4, i32 noundef 256, ptr noundef %70)
  %.not3849 = icmp eq ptr %75, null
  br i1 %.not3849, label %._crit_edge, label %.lr.ph

.lr.ph:                                           ; preds = %74, %.lr.ph
  %76 = call i32 (i32, ptr, ...) @logg(i32 noundef 2, ptr noundef nonnull @.str.11, ptr noundef nonnull %4) #17
  %77 = call ptr @fgets(ptr noundef nonnull %4, i32 noundef 256, ptr noundef %70)
  %.not38 = icmp eq ptr %77, null
  br i1 %.not38, label %._crit_edge, label %.lr.ph

._crit_edge:                                      ; preds = %.lr.ph, %74
  %78 = call i32 @fclose(ptr noundef %70)
  br label %79

79:                                               ; preds = %82, %._crit_edge
  %80 = call i32 @waitpid(i32 noundef %34, ptr noundef nonnull %6, i32 noundef 0) #17
  %81 = icmp eq i32 %80, -1
  br i1 %81, label %82, label %.critedge45

82:                                               ; preds = %79
  %83 = tail call ptr @__errno_location() #18
  %84 = load i32, ptr %83, align 4
  switch i32 %84, label %85 [
    i32 4, label %79
    i32 10, label %.critedge45
  ]

85:                                               ; preds = %82
  %86 = call ptr @strerror(i32 noundef %84) #17
  %87 = call i32 (i32, ptr, ...) @logg(i32 noundef 4, ptr noundef nonnull @.str.12, ptr noundef %86) #17
  br label %.critedge45

.critedge45:                                      ; preds = %82, %79, %85
  %88 = call i32 @cli_chomp(ptr noundef nonnull %3) #17
  %89 = call i32 @cli_chomp(ptr noundef nonnull %4) #17
  %90 = load i8, ptr %3, align 16
  %.not40 = icmp eq i8 %90, 0
  br i1 %.not40, label %95, label %91

91:                                               ; preds = %.critedge45
  %92 = load i8, ptr %4, align 16
  %.not41 = icmp eq i8 %92, 0
  %93 = select i1 %.not41, ptr @.str.15, ptr @.str.14
  %94 = call i32 (i32, ptr, ...) @logg(i32 noundef 4, ptr noundef nonnull @.str.13, ptr noundef nonnull %3, ptr noundef nonnull %93, ptr noundef nonnull %4) #17
  br label %95

95:                                               ; preds = %91, %.critedge45
  %96 = load i32, ptr %6, align 4
  %97 = and i32 %96, 127
  %98 = icmp eq i32 %97, 0
  br i1 %98, label %99, label %109

99:                                               ; preds = %95
  %100 = lshr i32 %96, 8
  %101 = and i32 %100, 255
  %.not42 = icmp eq i32 %101, 0
  br i1 %.not42, label %105, label %102

102:                                              ; preds = %99
  %103 = call ptr @fc_strerror(i32 noundef %101) #17
  %104 = call i32 (i32, ptr, ...) @logg(i32 noundef 4, ptr noundef nonnull @.str.6, ptr noundef %103) #17
  br label %118

105:                                              ; preds = %99
  %106 = load i8, ptr %3, align 16
  %.not43 = icmp eq i8 %106, 0
  br i1 %.not43, label %116, label %107

107:                                              ; preds = %105
  %108 = call i32 (i32, ptr, ...) @logg(i32 noundef 4, ptr noundef nonnull @.str.16) #17
  br label %116

109:                                              ; preds = %95
  %110 = shl nuw nsw i32 %97, 24
  %sext = add nuw i32 %110, 16777216
  %111 = icmp sgt i32 %sext, 33554431
  br i1 %111, label %112, label %114

112:                                              ; preds = %109
  %113 = call i32 (i32, ptr, ...) @logg(i32 noundef 5, ptr noundef nonnull @.str.17, i32 noundef %97) #17
  br label %118

114:                                              ; preds = %109
  %115 = call i32 (i32, ptr, ...) @logg(i32 noundef 4, ptr noundef nonnull @.str.18, i32 noundef %96) #17
  br label %118

116:                                              ; preds = %23, %107, %105, %35, %11
  %117 = call i32 (i32, ptr, ...) @logg(i32 noundef 0, ptr noundef nonnull @.str.19) #17
  br label %120

118:                                              ; preds = %9, %30, %102, %112, %114, %47
  %.0.ph = phi i32 [ 8, %47 ], [ 8, %114 ], [ 8, %112 ], [ 8, %102 ], [ 8, %30 ], [ 16, %9 ]
  %119 = call i32 (i32, ptr, ...) @logg(i32 noundef 5, ptr noundef nonnull @.str.20) #17
  br label %120

120:                                              ; preds = %118, %116
  %.047 = phi i32 [ %.0.ph, %118 ], [ 0, %116 ]
  store i32 1, ptr @g_sigchildWait, align 4
  ret i32 %.047
}